target datalayout = "e-m:e-p270:32:32-p271:32:32-p272:64:64-i64:64-i128:128-f80:128-n8:16:32:64-S128"
target triple = "x86_64-pc-linux-gnu"

%struct._ts = type { ptr, ptr, ptr, i64, %struct.anon, i32, i32, i32, i32, i32, i32, i32, i32, ptr, ptr, ptr, ptr, ptr, ptr, ptr, ptr, i32, ptr, i64, i64, ptr, i64, i32, ptr, ptr, ptr, i64, i64, ptr, ptr, ptr, %struct._err_stackitem, ptr, i64, ptr, ptr }
%struct.anon = type { i32 }
%struct._err_stackitem = type { ptr, ptr }

@stdout = external global ptr, align 8
@.str.83 = private unnamed_addr constant [17 x i8] c"--- Pass %d ---\0A\00", align 1
@.str.84 = private unnamed_addr constant [43 x i8] c"interp %ld <0x%lX>, thread state <0x%lX>: \00", align 1
@.str.85 = private unnamed_addr constant [70 x i8] c"import sys;print('id(modules) =', id(sys.modules));sys.stdout.flush()\00", align 1

; Function Attrs: nounwind uwtable
define internal void @print_subinterp() #0 {
  %1 = alloca ptr, align 8
  %2 = alloca ptr, align 8
  %3 = alloca i64, align 8
  call void @llvm.lifetime.start.p0(i64 8, ptr %1) #11
  %4 = call ptr @PyThreadState_Get()
  store ptr %4, ptr %1, align 8, !tbaa !25
  call void @llvm.lifetime.start.p0(i64 8, ptr %2) #11
  %5 = load ptr, ptr %1, align 8, !tbaa !25
  %6 = getelementptr inbounds nuw %struct._ts, ptr %5, i32 0, i32 2
  %7 = load ptr, ptr %6, align 8, !tbaa !87
  store ptr %7, ptr %2, align 8, !tbaa !96
  call void @llvm.lifetime.start.p0(i64 8, ptr %3) #11
  %8 = load ptr, ptr %2, align 8, !tbaa !96
  %9 = call i64 @PyInterpreterState_GetID(ptr noundef %8)
  store i64 %9, ptr %3, align 8, !tbaa !37
  %10 = load i64, ptr %3, align 8, !tbaa !37
  %11 = load ptr, ptr %2, align 8, !tbaa !96
  %12 = ptrtoint ptr %11 to i64
  %13 = load ptr, ptr %1, align 8, !tbaa !25
  %14 = ptrtoint ptr %13 to i64
  %15 = call i32 (ptr, ...) @printf(ptr noundef @.str.84, i64 noundef %10, i64 noundef %12, i64 noundef %14)
  %16 = load ptr, ptr @stdout, align 8, !tbaa !21
  %17 = call i32 @fflush(ptr noundef %16)
  %18 = call i32 @PyRun_SimpleStringFlags(ptr noundef @.str.85, ptr noundef null)
  call void @llvm.lifetime.end.p0(i64 8, ptr %3) #11
  call void @llvm.lifetime.end.p0(i64 8, ptr %2) #11
  call void @llvm.lifetime.end.p0(i64 8, ptr %1) #11
  ret void
}

; Function Attrs: nounwind uwtable
define internal i32 @test_repeated_init_and_subinterpreters() #0 {
  %1 = alloca ptr, align 8
  %2 = alloca ptr, align 8
  %3 = alloca i32, align 4
  %4 = alloca i32, align 4
  %5 = alloca i32, align 4
  %6 = alloca i32, align 4
  call void @llvm.lifetime.start.p0(i64 8, ptr %1) #11
  call void @llvm.lifetime.start.p0(i64 8, ptr %2) #11
  call void @llvm.lifetime.start.p0(i64 4, ptr %3) #11
  call void @llvm.lifetime.start.p0(i64 4, ptr %4) #11
  store i32 1, ptr %4, align 4, !tbaa !4
  br label %7

7:                                                ; preds = %33, %0
  %8 = load i32, ptr %4, align 4, !tbaa !4
  %9 = icmp sle i32 %8, 4
  br i1 %9, label %11, label %10

10:                                               ; preds = %7
  store i32 2, ptr %5, align 4
  call void @llvm.lifetime.end.p0(i64 4, ptr %4) #11
  br label %36

11:                                               ; preds = %7
  %12 = load i32, ptr %4, align 4, !tbaa !4
  %13 = call i32 (ptr, ...) @printf(ptr noundef @.str.83, i32 noundef %12)
  call void @_testembed_Py_InitializeFromConfig()
  %14 = call ptr @PyThreadState_Get()
  store ptr %14, ptr %1, align 8, !tbaa !25
  %15 = load ptr, ptr %1, align 8, !tbaa !25
  call void @PyEval_ReleaseThread(ptr noundef %15)
  %16 = call i32 @PyGILState_Ensure()
  store i32 %16, ptr %3, align 4, !tbaa !4
  call void @print_subinterp()
  %17 = call ptr @PyThreadState_Swap(ptr noundef null)
  call void @llvm.lifetime.start.p0(i64 4, ptr %6) #11
  store i32 0, ptr %6, align 4, !tbaa !4
  br label %18

18:                                               ; preds = %25, %11
  %19 = load i32, ptr %6, align 4, !tbaa !4
  %20 = icmp slt i32 %19, 3
  br i1 %20, label %22, label %21

21:                                               ; preds = %18
  store i32 5, ptr %5, align 4
  call void @llvm.lifetime.end.p0(i64 4, ptr %6) #11
  br label %28

22:                                               ; preds = %18
  %23 = call ptr @Py_NewInterpreter()
  store ptr %23, ptr %2, align 8, !tbaa !25
  call void @print_subinterp()
  %24 = load ptr, ptr %2, align 8, !tbaa !25
  call void @Py_EndInterpreter(ptr noundef %24)
  br label %25

25:                                               ; preds = %22
  %26 = load i32, ptr %6, align 4, !tbaa !4
  %27 = add i32 %26, 1
  store i32 %27, ptr %6, align 4, !tbaa !4
  br label %18, !llvm.loop !27

28:                                               ; preds = %21
  %29 = load ptr, ptr %1, align 8, !tbaa !25
  %30 = call ptr @PyThreadState_Swap(ptr noundef %29)
  call void @print_subinterp()
  %31 = load i32, ptr %3, align 4, !tbaa !4
  call void @PyGILState_Release(i32 noundef %31)
  %32 = load ptr, ptr %1, align 8, !tbaa !25
  call void @PyEval_RestoreThread(ptr noundef %32)
  call void @Py_Finalize()
  br label %33

33:                                               ; preds = %28
  %34 = load i32, ptr %4, align 4, !tbaa !4
  %35 = add i32 %34, 1
  store i32 %35, ptr %4, align 4, !tbaa !4
  br label %7, !llvm.loop !28

36:                                               ; preds = %10
  store i32 1, ptr %5, align 4
  call void @llvm.lifetime.end.p0(i64 4, ptr %3) #11
  call void @llvm.lifetime.end.p0(i64 8, ptr %2) #11
  call void @llvm.lifetime.end.p0(i64 8, ptr %1) #11
  ret i32 0
}