; Function Attrs: nounwind uwtable
define internal noundef i32 @test_repeated_init_and_subinterpreters() #0 {
  br label %2

1:                                                ; preds = %17
  ret i32 0

2:                                                ; preds = %0, %17
  %.0911 = phi i32 [ 1, %0 ], [ %29, %17 ]
  %3 = tail call i32 (ptr, ...) @printf(ptr noundef nonnull dereferenceable(1) @.str.83, i32 noundef %.0911)
  tail call fastcc void @_testembed_Py_InitializeFromConfig()
  %4 = tail call ptr @PyThreadState_Get() #20
  tail call void @PyEval_ReleaseThread(ptr noundef %4) #20
  %5 = tail call i32 @PyGILState_Ensure() #20
  %6 = tail call ptr @PyThreadState_Get() #20
  %7 = getelementptr inbounds nuw i8, ptr %6, i64 16
  %8 = load ptr, ptr %7, align 8, !tbaa !21
  %9 = tail call i64 @PyInterpreterState_GetID(ptr noundef %8) #20
  %10 = ptrtoint ptr %8 to i64
  %11 = ptrtoint ptr %6 to i64
  %12 = tail call i32 (ptr, ...) @printf(ptr noundef nonnull dereferenceable(1) @.str.84, i64 noundef %9, i64 noundef %10, i64 noundef %11)
  %13 = load ptr, ptr @stdout, align 8, !tbaa !16
  %14 = tail call i32 @fflush(ptr noundef %13)
  %15 = tail call i32 @PyRun_SimpleStringFlags(ptr noundef nonnull @.str.85, ptr noundef null) #20
  %16 = tail call ptr @PyThreadState_Swap(ptr noundef null) #20
  br label %30

17:                                               ; preds = %30
  %18 = tail call ptr @PyThreadState_Swap(ptr noundef %4) #20
  %19 = tail call ptr @PyThreadState_Get() #20
  %20 = getelementptr inbounds nuw i8, ptr %19, i64 16
  %21 = load ptr, ptr %20, align 8, !tbaa !21
  %22 = tail call i64 @PyInterpreterState_GetID(ptr noundef %21) #20
  %23 = ptrtoint ptr %21 to i64
  %24 = ptrtoint ptr %19 to i64
  %25 = tail call i32 (ptr, ...) @printf(ptr noundef nonnull dereferenceable(1) @.str.84, i64 noundef %22, i64 noundef %23, i64 noundef %24)
  %26 = load ptr, ptr @stdout, align 8, !tbaa !16
  %27 = tail call i32 @fflush(ptr noundef %26)
  %28 = tail call i32 @PyRun_SimpleStringFlags(ptr noundef nonnull @.str.85, ptr noundef null) #20
  tail call void @PyGILState_Release(i32 noundef %5) #20
  tail call void @PyEval_RestoreThread(ptr noundef %4) #20
  tail call void @Py_Finalize() #20
  %29 = add nuw nsw i32 %.0911, 1
  %exitcond12.not = icmp eq i32 %29, 5
  br i1 %exitcond12.not, label %1, label %2, !llvm.loop !33

30:                                               ; preds = %2, %30
  %.010 = phi i32 [ 0, %2 ], [ %42, %30 ]
  %31 = tail call ptr @Py_NewInterpreter() #20
  %32 = tail call ptr @PyThreadState_Get() #20
  %33 = getelementptr inbounds nuw i8, ptr %32, i64 16
  %34 = load ptr, ptr %33, align 8, !tbaa !21
  %35 = tail call i64 @PyInterpreterState_GetID(ptr noundef %34) #20
  %36 = ptrtoint ptr %34 to i64
  %37 = ptrtoint ptr %32 to i64
  %38 = tail call i32 (ptr, ...) @printf(ptr noundef nonnull dereferenceable(1) @.str.84, i64 noundef %35, i64 noundef %36, i64 noundef %37)
  %39 = load ptr, ptr @stdout, align 8, !tbaa !16
  %40 = tail call i32 @fflush(ptr noundef %39)
  %41 = tail call i32 @PyRun_SimpleStringFlags(ptr noundef nonnull @.str.85, ptr noundef null) #20
  tail call void @Py_EndInterpreter(ptr noundef %31) #20
  %42 = add nuw nsw i32 %.010, 1
  %exitcond.not = icmp eq i32 %42, 3
  br i1 %exitcond.not, label %17, label %30, !llvm.loop !34
}